; Function Attrs: null_pointer_is_valid sspstrong uwtable
define internal i32 @fileexp_dissect_bulkkeepalive_resp(ptr noundef %0, i32 noundef %1, ptr noundef %2, ptr noundef %3, ptr noundef %4, ptr noundef %5) #0 {
  %7 = alloca i32, align 4
  %8 = alloca i32, align 4
  call void @llvm.lifetime.start.p0(i64 4, ptr nonnull %7) #4
  %9 = getelementptr inbounds nuw i8, ptr %4, i64 25
  %10 = load i8, ptr %9, align 1, !range !6, !noundef !7
  %11 = trunc nuw i8 %10 to i1
  br i1 %11, label %25, label %12

12:                                               ; preds = %6
  %13 = load i32, ptr @hf_fileexp_bulkkeepalive_spare4, align 4
  %14 = call i32 @dissect_ndr_uint32(ptr noundef %0, i32 noundef %1, ptr noundef %2, ptr noundef %3, ptr noundef %4, ptr noundef %5, i32 noundef %13, ptr noundef nonnull %7)
  call void @llvm.lifetime.start.p0(i64 4, ptr nonnull %8) #4
  %15 = load i32, ptr @hf_error_st, align 4
  %16 = call i32 @dissect_ndr_uint32(ptr noundef %0, i32 noundef %14, ptr noundef %2, ptr noundef %3, ptr noundef %4, ptr noundef %5, i32 noundef %15, ptr noundef nonnull %8)
  %17 = load i32, ptr %8, align 4
  %18 = call ptr @val_to_str_ext(i32 noundef %17, ptr noundef nonnull @dce_error_vals_ext, ptr noundef nonnull @.str.346)
  %19 = load i32, ptr %8, align 4
  %.not = icmp eq i32 %19, 0
  %20 = getelementptr inbounds nuw i8, ptr %2, i64 8
  %21 = load ptr, ptr %20, align 8
  br i1 %.not, label %23, label %22

22:                                               ; preds = %12
  call void (ptr, i32, ptr, ...) @col_add_fstr(ptr noundef %21, i32 noundef 25, ptr noundef nonnull @.str.373, ptr noundef nonnull @.str.482, ptr noundef %18)
  br label %24

23:                                               ; preds = %12
  call void (ptr, i32, ptr, ...) @col_append_fstr(ptr noundef %21, i32 noundef 25, ptr noundef nonnull @.str.375, ptr noundef %18)
  br label %24

24:                                               ; preds = %23, %22
  call void @llvm.lifetime.end.p0(i64 4, ptr nonnull %8) #4
  br label %25

25:                                               ; preds = %6, %24
  %.0 = phi i32 [ %16, %24 ], [ %1, %6 ]
  call void @llvm.lifetime.end.p0(i64 4, ptr nonnull %7) #4
  ret i32 %.0
}